target datalayout = "e-m:e-p270:32:32-p271:32:32-p272:64:64-i64:64-i128:128-f80:128-n8:16:32:64-S128"
target triple = "x86_64-unknown-linux-gnu"

%struct.FLAC__StreamMetadata_VorbisComment_Entry = type { i32, ptr }

@CHANNEL_MASK_TAG = dso_local global ptr @.str, align 8
@.str.6 = private unnamed_addr constant [10 x i8] c"%s=0x%04X\00", align 1

; Function Attrs: nounwind sspstrong uwtable
define dso_local i32 @flac__utils_set_channel_mask_tag(ptr noundef %object, i32 noundef %channel_mask) #0 {
entry:
  %retval = alloca i32, align 4
  %object.addr = alloca ptr, align 8
  %channel_mask.addr = alloca i32, align 4
  %entry1 = alloca %struct.FLAC__StreamMetadata_VorbisComment_Entry, align 8
  %tag = alloca [128 x i8], align 16
  store ptr %object, ptr %object.addr, align 8
  store i32 %channel_mask, ptr %channel_mask.addr, align 4
  call void @llvm.memset.p0.i64(ptr align 8 %entry1, i8 0, i64 16, i1 false)
  %arraydecay = getelementptr inbounds [128 x i8], ptr %tag, i64 0, i64 0
  %entry2 = getelementptr inbounds %struct.FLAC__StreamMetadata_VorbisComment_Entry, ptr %entry1, i32 0, i32 1
  store ptr %arraydecay, ptr %entry2, align 8
  %arraydecay3 = getelementptr inbounds [128 x i8], ptr %tag, i64 0, i64 0
  %0 = load ptr, ptr @CHANNEL_MASK_TAG, align 8
  %1 = load i32, ptr %channel_mask.addr, align 4
  %call = call i32 (ptr, i64, ptr, ...) @flac_snprintf(ptr noundef %arraydecay3, i64 noundef 128, ptr noundef @.str.6, ptr noundef %0, i32 noundef %1)
  %length = getelementptr inbounds %struct.FLAC__StreamMetadata_VorbisComment_Entry, ptr %entry1, i32 0, i32 0
  store i32 %call, ptr %length, align 8
  %conv = zext i32 %call to i64
  %cmp = icmp uge i64 %conv, 128
  br i1 %cmp, label %if.then, label %if.end

if.then:                                          ; preds = %entry
  store i32 0, ptr %retval, align 4
  br label %return

if.end:                                           ; preds = %entry
  %2 = load ptr, ptr %object.addr, align 8
  %3 = getelementptr inbounds { i32, ptr }, ptr %entry1, i32 0, i32 0
  %4 = load i32, ptr %3, align 8
  %5 = getelementptr inbounds { i32, ptr }, ptr %entry1, i32 0, i32 1
  %6 = load ptr, ptr %5, align 8
  %call5 = call i32 @FLAC__metadata_object_vorbiscomment_replace_comment(ptr noundef %2, i32 %4, ptr %6, i32 noundef 1, i32 noundef 1)
  %tobool = icmp ne i32 %call5, 0
  br i1 %tobool, label %if.end7, label %if.then6

if.then6:                                         ; preds = %if.end
  store i32 0, ptr %retval, align 4
  br label %return

if.end7:                                          ; preds = %if.end
  store i32 1, ptr %retval, align 4
  br label %return

return:                                           ; preds = %if.end7, %if.then6, %if.then
  %7 = load i32, ptr %retval, align 4
  ret i32 %7
}