; Function Attrs: nounwind sspstrong uwtable
define dso_local range(i32 0, 2) i32 @flac__utils_set_channel_mask_tag(ptr noundef %object, i32 noundef %channel_mask) local_unnamed_addr #2 {
entry:
  %tag = alloca [128 x i8], align 16
  %0 = load ptr, ptr @CHANNEL_MASK_TAG, align 8
  %call = call i32 (ptr, i64, ptr, ...) @flac_snprintf(ptr noundef nonnull %tag, i64 noundef 128, ptr noundef nonnull @.str.6, ptr noundef %0, i32 noundef %channel_mask) #18
  %cmp = icmp ugt i32 %call, 127
  br i1 %cmp, label %return, label %if.end

if.end:                                           ; preds = %entry
  %call5 = call i32 @FLAC__metadata_object_vorbiscomment_replace_comment(ptr noundef %object, i32 %call, ptr nonnull %tag, i32 noundef 1, i32 noundef 1) #18
  %tobool.not = icmp ne i32 %call5, 0
  %. = zext i1 %tobool.not to i32
  br label %return

return:                                           ; preds = %if.end, %entry
  %retval.0 = phi i32 [ 0, %entry ], [ %., %if.end ]
  ret i32 %retval.0
}